target datalayout = "e-m:e-p270:32:32-p271:32:32-p272:64:64-i64:64-i128:128-f80:128-n8:16:32:64-S128"
target triple = "x86_64-pc-linux-gnu"

%"class.cv::Mat" = type { i32, i32, i32, i32, ptr, ptr, ptr, ptr, ptr, ptr, %"struct.cv::MatSize", %"struct.cv::MatStep" }
%"struct.cv::MatSize" = type { ptr }
%"struct.cv::MatStep" = type { ptr, [2 x i64] }
%"struct.cvtest::MatInfo" = type { ptr }

@.str.79 = private unnamed_addr constant [8 x i8] c"<Empty>\00", align 1
@_ZZN6cvtestlsERSoRKNS_7MatInfoEE8depthstr = internal global [8 x ptr] [ptr @.str, ptr @.str.21, ptr @.str.22, ptr @.str.23, ptr @.str.24, ptr @.str.25, ptr @.str.26, ptr @.str.80], align 16
@.str.81 = private unnamed_addr constant [2 x i8] c"C\00", align 1
@.str.82 = private unnamed_addr constant [2 x i8] c" \00", align 1
@.str.83 = private unnamed_addr constant [7 x i8] c"-dim (\00", align 1
@.str.84 = private unnamed_addr constant [4 x i8] c" x \00", align 1
@.str.85 = private unnamed_addr constant [2 x i8] c")\00", align 1

; Function Attrs: mustprogress nounwind uwtable
define linkonce_odr hidden noundef nonnull align 4 dereferenceable(4) ptr @_ZNK2cv7MatSizeixEi(ptr noundef nonnull align 8 dereferenceable(8) %0, i32 noundef %1) #4 comdat align 2 {
  %3 = alloca ptr, align 8
  %4 = alloca i32, align 4
  store ptr %0, ptr %3, align 8
  store i32 %1, ptr %4, align 4
  %5 = load ptr, ptr %3, align 8
  %6 = getelementptr inbounds %"struct.cv::MatSize", ptr %5, i32 0, i32 0
  %7 = load ptr, ptr %6, align 8
  %8 = load i32, ptr %4, align 4
  %9 = sext i32 %8 to i64
  %10 = getelementptr inbounds i32, ptr %7, i64 %9
  ret ptr %10
}

; Function Attrs: mustprogress nounwind uwtable
define linkonce_odr hidden noundef i32 @_ZNK2cv3Mat8channelsEv(ptr noundef nonnull align 8 dereferenceable(96) %0) #4 comdat align 2 {
  %2 = alloca ptr, align 8
  store ptr %0, ptr %2, align 8
  %3 = load ptr, ptr %2, align 8
  %4 = getelementptr inbounds %"class.cv::Mat", ptr %3, i32 0, i32 0
  %5 = load i32, ptr %4, align 8
  %6 = and i32 %5, 4088
  %7 = ashr i32 %6, 3
  %8 = add nsw i32 %7, 1
  ret i32 %8
}

; Function Attrs: mustprogress nounwind uwtable
define linkonce_odr hidden noundef i32 @_ZNK2cv3Mat5depthEv(ptr noundef nonnull align 8 dereferenceable(96) %0) #4 comdat align 2 {
  %2 = alloca ptr, align 8
  store ptr %0, ptr %2, align 8
  %3 = load ptr, ptr %2, align 8
  %4 = getelementptr inbounds %"class.cv::Mat", ptr %3, i32 0, i32 0
  %5 = load i32, ptr %4, align 8
  %6 = and i32 %5, 7
  ret i32 %6
}

; Function Attrs: mustprogress uwtable
define hidden noundef nonnull align 8 dereferenceable(8) ptr @_ZN6cvtestlsERSoRKNS_7MatInfoE(ptr noundef nonnull align 8 dereferenceable(8) %0, ptr noundef nonnull align 8 dereferenceable(8) %1) #6 {
  %3 = alloca ptr, align 8
  %4 = alloca ptr, align 8
  %5 = alloca i32, align 4
  store ptr %0, ptr %3, align 8
  store ptr %1, ptr %4, align 8
  %6 = load ptr, ptr %4, align 8
  %7 = getelementptr inbounds %"struct.cvtest::MatInfo", ptr %6, i32 0, i32 0
  %8 = load ptr, ptr %7, align 8
  %9 = icmp ne ptr %8, null
  br i1 %9, label %10, label %15

10:                                               ; preds = %2
  %11 = load ptr, ptr %4, align 8
  %12 = getelementptr inbounds %"struct.cvtest::MatInfo", ptr %11, i32 0, i32 0
  %13 = load ptr, ptr %12, align 8
  %14 = call noundef zeroext i1 @_ZNK2cv3Mat5emptyEv(ptr noundef nonnull align 8 dereferenceable(96) %13)
  br i1 %14, label %15, label %18

15:                                               ; preds = %10, %2
  %16 = load ptr, ptr %3, align 8
  %17 = call noundef nonnull align 8 dereferenceable(8) ptr @_ZStlsISt11char_traitsIcEERSt13basic_ostreamIcT_ES5_PKc(ptr noundef nonnull align 8 dereferenceable(8) %16, ptr noundef @.str.79)
  br label %74

18:                                               ; preds = %10
  %19 = load ptr, ptr %3, align 8
  %20 = load ptr, ptr %4, align 8
  %21 = getelementptr inbounds %"struct.cvtest::MatInfo", ptr %20, i32 0, i32 0
  %22 = load ptr, ptr %21, align 8
  %23 = call noundef i32 @_ZNK2cv3Mat5depthEv(ptr noundef nonnull align 8 dereferenceable(96) %22)
  %24 = sext i32 %23 to i64
  %25 = getelementptr inbounds [8 x ptr], ptr @_ZZN6cvtestlsERSoRKNS_7MatInfoEE8depthstr, i64 0, i64 %24
  %26 = load ptr, ptr %25, align 8
  %27 = call noundef nonnull align 8 dereferenceable(8) ptr @_ZStlsISt11char_traitsIcEERSt13basic_ostreamIcT_ES5_PKc(ptr noundef nonnull align 8 dereferenceable(8) %19, ptr noundef %26)
  %28 = call noundef nonnull align 8 dereferenceable(8) ptr @_ZStlsISt11char_traitsIcEERSt13basic_ostreamIcT_ES5_PKc(ptr noundef nonnull align 8 dereferenceable(8) %27, ptr noundef @.str.81)
  %29 = load ptr, ptr %4, align 8
  %30 = getelementptr inbounds %"struct.cvtest::MatInfo", ptr %29, i32 0, i32 0
  %31 = load ptr, ptr %30, align 8
  %32 = call noundef i32 @_ZNK2cv3Mat8channelsEv(ptr noundef nonnull align 8 dereferenceable(96) %31)
  %33 = call noundef nonnull align 8 dereferenceable(8) ptr @_ZNSolsEi(ptr noundef nonnull align 8 dereferenceable(8) %28, i32 noundef %32)
  %34 = call noundef nonnull align 8 dereferenceable(8) ptr @_ZStlsISt11char_traitsIcEERSt13basic_ostreamIcT_ES5_PKc(ptr noundef nonnull align 8 dereferenceable(8) %33, ptr noundef @.str.82)
  %35 = load ptr, ptr %4, align 8
  %36 = getelementptr inbounds %"struct.cvtest::MatInfo", ptr %35, i32 0, i32 0
  %37 = load ptr, ptr %36, align 8
  %38 = getelementptr inbounds %"class.cv::Mat", ptr %37, i32 0, i32 1
  %39 = load i32, ptr %38, align 4
  %40 = call noundef nonnull align 8 dereferenceable(8) ptr @_ZNSolsEi(ptr noundef nonnull align 8 dereferenceable(8) %34, i32 noundef %39)
  %41 = call noundef nonnull align 8 dereferenceable(8) ptr @_ZStlsISt11char_traitsIcEERSt13basic_ostreamIcT_ES5_PKc(ptr noundef nonnull align 8 dereferenceable(8) %40, ptr noundef @.str.83)
  store i32 0, ptr %5, align 4
  br label %42

42:                                               ; preds = %70, %18
  %43 = load i32, ptr %5, align 4
  %44 = load ptr, ptr %4, align 8
  %45 = getelementptr inbounds %"struct.cvtest::MatInfo", ptr %44, i32 0, i32 0
  %46 = load ptr, ptr %45, align 8
  %47 = getelementptr inbounds %"class.cv::Mat", ptr %46, i32 0, i32 1
  %48 = load i32, ptr %47, align 4
  %49 = icmp slt i32 %43, %48
  br i1 %49, label %50, label %73

50:                                               ; preds = %42
  %51 = load ptr, ptr %3, align 8
  %52 = load ptr, ptr %4, align 8
  %53 = getelementptr inbounds %"struct.cvtest::MatInfo", ptr %52, i32 0, i32 0
  %54 = load ptr, ptr %53, align 8
  %55 = getelementptr inbounds %"class.cv::Mat", ptr %54, i32 0, i32 10
  %56 = load i32, ptr %5, align 4
  %57 = call noundef nonnull align 4 dereferenceable(4) ptr @_ZNK2cv7MatSizeixEi(ptr noundef nonnull align 8 dereferenceable(8) %55, i32 noundef %56)
  %58 = load i32, ptr %57, align 4
  %59 = call noundef nonnull align 8 dereferenceable(8) ptr @_ZNSolsEi(ptr noundef nonnull align 8 dereferenceable(8) %51, i32 noundef %58)
  %60 = load i32, ptr %5, align 4
  %61 = load ptr, ptr %4, align 8
  %62 = getelementptr inbounds %"struct.cvtest::MatInfo", ptr %61, i32 0, i32 0
  %63 = load ptr, ptr %62, align 8
  %64 = getelementptr inbounds %"class.cv::Mat", ptr %63, i32 0, i32 1
  %65 = load i32, ptr %64, align 4
  %66 = sub nsw i32 %65, 1
  %67 = icmp slt i32 %60, %66
  %68 = select i1 %67, ptr @.str.84, ptr @.str.85
  %69 = call noundef nonnull align 8 dereferenceable(8) ptr @_ZStlsISt11char_traitsIcEERSt13basic_ostreamIcT_ES5_PKc(ptr noundef nonnull align 8 dereferenceable(8) %59, ptr noundef %68)
  br label %70

70:                                               ; preds = %50
  %71 = load i32, ptr %5, align 4
  %72 = add nsw i32 %71, 1
  store i32 %72, ptr %5, align 4
  br label %42, !llvm.loop !502

73:                                               ; preds = %42
  br label %74

74:                                               ; preds = %73, %15
  %75 = load ptr, ptr %3, align 8
  ret ptr %75
}