; Function Attrs: mustprogress uwtable
define hidden noundef nonnull align 8 dereferenceable(8) ptr @_ZN6cvtestlsERSoRKNS_7MatInfoE(ptr noundef nonnull returned align 8 dereferenceable(8) %0, ptr nocapture noundef nonnull readonly align 8 dereferenceable(8) %1) local_unnamed_addr #6 {
  %3 = load ptr, ptr %1, align 8
  %.not = icmp eq ptr %3, null
  br i1 %.not, label %6, label %4

4:                                                ; preds = %2
  %5 = tail call noundef zeroext i1 @_ZNK2cv3Mat5emptyEv(ptr noundef nonnull align 8 dereferenceable(96) %3)
  br i1 %5, label %6, label %8

6:                                                ; preds = %4, %2
  %7 = tail call noundef nonnull align 8 dereferenceable(8) ptr @_ZStlsISt11char_traitsIcEERSt13basic_ostreamIcT_ES5_PKc(ptr noundef nonnull align 8 dereferenceable(8) %0, ptr noundef nonnull @.str.79)
  br label %.loopexit

8:                                                ; preds = %4
  %9 = load ptr, ptr %1, align 8
  %10 = load i32, ptr %9, align 8
  %11 = and i32 %10, 7
  %12 = zext nneg i32 %11 to i64
  %13 = getelementptr inbounds [8 x ptr], ptr @_ZZN6cvtestlsERSoRKNS_7MatInfoEE8depthstr, i64 0, i64 %12
  %14 = load ptr, ptr %13, align 8
  %15 = tail call noundef nonnull align 8 dereferenceable(8) ptr @_ZStlsISt11char_traitsIcEERSt13basic_ostreamIcT_ES5_PKc(ptr noundef nonnull align 8 dereferenceable(8) %0, ptr noundef %14)
  %16 = tail call noundef nonnull align 8 dereferenceable(8) ptr @_ZStlsISt11char_traitsIcEERSt13basic_ostreamIcT_ES5_PKc(ptr noundef nonnull align 8 dereferenceable(8) %15, ptr noundef nonnull @.str.81)
  %17 = load ptr, ptr %1, align 8
  %18 = load i32, ptr %17, align 8
  %19 = lshr i32 %18, 3
  %20 = and i32 %19, 511
  %21 = add nuw nsw i32 %20, 1
  %22 = tail call noundef nonnull align 8 dereferenceable(8) ptr @_ZNSolsEi(ptr noundef nonnull align 8 dereferenceable(8) %16, i32 noundef %21)
  %23 = tail call noundef nonnull align 8 dereferenceable(8) ptr @_ZStlsISt11char_traitsIcEERSt13basic_ostreamIcT_ES5_PKc(ptr noundef nonnull align 8 dereferenceable(8) %22, ptr noundef nonnull @.str.82)
  %24 = load ptr, ptr %1, align 8
  %25 = getelementptr inbounds i8, ptr %24, i64 4
  %26 = load i32, ptr %25, align 4
  %27 = tail call noundef nonnull align 8 dereferenceable(8) ptr @_ZNSolsEi(ptr noundef nonnull align 8 dereferenceable(8) %23, i32 noundef %26)
  %28 = tail call noundef nonnull align 8 dereferenceable(8) ptr @_ZStlsISt11char_traitsIcEERSt13basic_ostreamIcT_ES5_PKc(ptr noundef nonnull align 8 dereferenceable(8) %27, ptr noundef nonnull @.str.83)
  %29 = load ptr, ptr %1, align 8
  %30 = getelementptr inbounds i8, ptr %29, i64 4
  %31 = load i32, ptr %30, align 4
  %32 = icmp sgt i32 %31, 0
  br i1 %32, label %.lr.ph, label %.loopexit

.lr.ph:                                           ; preds = %8, %.lr.ph
  %indvars.iv = phi i64 [ %indvars.iv.next, %.lr.ph ], [ 0, %8 ]
  %33 = phi ptr [ %47, %.lr.ph ], [ %29, %8 ]
  %34 = getelementptr inbounds i8, ptr %33, i64 64
  %35 = load ptr, ptr %34, align 8
  %36 = getelementptr inbounds i32, ptr %35, i64 %indvars.iv
  %37 = load i32, ptr %36, align 4
  %38 = tail call noundef nonnull align 8 dereferenceable(8) ptr @_ZNSolsEi(ptr noundef nonnull align 8 dereferenceable(8) %0, i32 noundef %37)
  %39 = load ptr, ptr %1, align 8
  %40 = getelementptr inbounds i8, ptr %39, i64 4
  %41 = load i32, ptr %40, align 4
  %42 = add nsw i32 %41, -1
  %43 = sext i32 %42 to i64
  %44 = icmp slt i64 %indvars.iv, %43
  %45 = select i1 %44, ptr @.str.84, ptr @.str.85
  %46 = tail call noundef nonnull align 8 dereferenceable(8) ptr @_ZStlsISt11char_traitsIcEERSt13basic_ostreamIcT_ES5_PKc(ptr noundef nonnull align 8 dereferenceable(8) %38, ptr noundef nonnull %45)
  %indvars.iv.next = add nuw nsw i64 %indvars.iv, 1
  %47 = load ptr, ptr %1, align 8
  %48 = getelementptr inbounds i8, ptr %47, i64 4
  %49 = load i32, ptr %48, align 4
  %50 = sext i32 %49 to i64
  %51 = icmp slt i64 %indvars.iv.next, %50
  br i1 %51, label %.lr.ph, label %.loopexit, !llvm.loop !727

.loopexit:                                        ; preds = %.lr.ph, %8, %6
  ret ptr %0
}